target datalayout = "e-m:e-p270:32:32-p271:32:32-p272:64:64-i64:64-i128:128-f80:128-n8:16:32:64-S128"
target triple = "x86_64-pc-linux-gnu"

@.str.10 = private unnamed_addr constant [2 x i8] c"1\00", align 1
@.str.11 = private unnamed_addr constant [3 x i8] c"ON\00", align 1
@.str.12 = private unnamed_addr constant [3 x i8] c"on\00", align 1
@.str.13 = private unnamed_addr constant [3 x i8] c"On\00", align 1
@.str.14 = private unnamed_addr constant [5 x i8] c"TRUE\00", align 1
@.str.15 = private unnamed_addr constant [5 x i8] c"true\00", align 1
@.str.16 = private unnamed_addr constant [5 x i8] c"True\00", align 1
@.str.17 = private unnamed_addr constant [4 x i8] c"yes\00", align 1
@.str.18 = private unnamed_addr constant [4 x i8] c"Yes\00", align 1
@.str.19 = private unnamed_addr constant [4 x i8] c"YES\00", align 1

; Function Attrs: inlinehint mustprogress nounwind uwtable
define linkonce_odr dso_local noundef zeroext i1 @_ZSteqIcSt11char_traitsIcESaIcEEbRKNSt7__cxx1112basic_stringIT_T0_T1_EEPKS5_(ptr noundef nonnull align 8 dereferenceable(32) %0, ptr noundef %1) #7 comdat {
  %3 = alloca ptr, align 8
  %4 = alloca ptr, align 8
  store ptr %0, ptr %3, align 8, !tbaa !20
  store ptr %1, ptr %4, align 8, !tbaa !42
  %5 = load ptr, ptr %3, align 8, !tbaa !20
  %6 = load ptr, ptr %4, align 8, !tbaa !42
  %7 = call noundef i32 @_ZNKSt7__cxx1112basic_stringIcSt11char_traitsIcESaIcEE7compareEPKc(ptr noundef nonnull align 8 dereferenceable(32) %5, ptr noundef %6) #3
  %8 = icmp eq i32 %7, 0
  ret i1 %8
}

; Function Attrs: mustprogress uwtable
define dso_local void @_ZN5cmsys20CommandLineArguments16PopulateVariableEPbRKNSt7__cxx1112basic_stringIcSt11char_traitsIcESaIcEEE(ptr noundef nonnull align 8 dereferenceable(45) %0, ptr noundef %1, ptr noundef nonnull align 8 dereferenceable(32) %2) #4 align 2 {
  %4 = alloca ptr, align 8
  %5 = alloca ptr, align 8
  %6 = alloca ptr, align 8
  store ptr %0, ptr %4, align 8, !tbaa !4
  store ptr %1, ptr %5, align 8, !tbaa !110
  store ptr %2, ptr %6, align 8, !tbaa !20
  %7 = load ptr, ptr %6, align 8, !tbaa !20
  %8 = call noundef zeroext i1 @_ZSteqIcSt11char_traitsIcESaIcEEbRKNSt7__cxx1112basic_stringIT_T0_T1_EEPKS5_(ptr noundef nonnull align 8 dereferenceable(32) %7, ptr noundef @.str.10)
  br i1 %8, label %36, label %9

9:                                                ; preds = %3
  %10 = load ptr, ptr %6, align 8, !tbaa !20
  %11 = call noundef zeroext i1 @_ZSteqIcSt11char_traitsIcESaIcEEbRKNSt7__cxx1112basic_stringIT_T0_T1_EEPKS5_(ptr noundef nonnull align 8 dereferenceable(32) %10, ptr noundef @.str.11)
  br i1 %11, label %36, label %12

12:                                               ; preds = %9
  %13 = load ptr, ptr %6, align 8, !tbaa !20
  %14 = call noundef zeroext i1 @_ZSteqIcSt11char_traitsIcESaIcEEbRKNSt7__cxx1112basic_stringIT_T0_T1_EEPKS5_(ptr noundef nonnull align 8 dereferenceable(32) %13, ptr noundef @.str.12)
  br i1 %14, label %36, label %15

15:                                               ; preds = %12
  %16 = load ptr, ptr %6, align 8, !tbaa !20
  %17 = call noundef zeroext i1 @_ZSteqIcSt11char_traitsIcESaIcEEbRKNSt7__cxx1112basic_stringIT_T0_T1_EEPKS5_(ptr noundef nonnull align 8 dereferenceable(32) %16, ptr noundef @.str.13)
  br i1 %17, label %36, label %18

18:                                               ; preds = %15
  %19 = load ptr, ptr %6, align 8, !tbaa !20
  %20 = call noundef zeroext i1 @_ZSteqIcSt11char_traitsIcESaIcEEbRKNSt7__cxx1112basic_stringIT_T0_T1_EEPKS5_(ptr noundef nonnull align 8 dereferenceable(32) %19, ptr noundef @.str.14)
  br i1 %20, label %36, label %21

21:                                               ; preds = %18
  %22 = load ptr, ptr %6, align 8, !tbaa !20
  %23 = call noundef zeroext i1 @_ZSteqIcSt11char_traitsIcESaIcEEbRKNSt7__cxx1112basic_stringIT_T0_T1_EEPKS5_(ptr noundef nonnull align 8 dereferenceable(32) %22, ptr noundef @.str.15)
  br i1 %23, label %36, label %24

24:                                               ; preds = %21
  %25 = load ptr, ptr %6, align 8, !tbaa !20
  %26 = call noundef zeroext i1 @_ZSteqIcSt11char_traitsIcESaIcEEbRKNSt7__cxx1112basic_stringIT_T0_T1_EEPKS5_(ptr noundef nonnull align 8 dereferenceable(32) %25, ptr noundef @.str.16)
  br i1 %26, label %36, label %27

27:                                               ; preds = %24
  %28 = load ptr, ptr %6, align 8, !tbaa !20
  %29 = call noundef zeroext i1 @_ZSteqIcSt11char_traitsIcESaIcEEbRKNSt7__cxx1112basic_stringIT_T0_T1_EEPKS5_(ptr noundef nonnull align 8 dereferenceable(32) %28, ptr noundef @.str.17)
  br i1 %29, label %36, label %30

30:                                               ; preds = %27
  %31 = load ptr, ptr %6, align 8, !tbaa !20
  %32 = call noundef zeroext i1 @_ZSteqIcSt11char_traitsIcESaIcEEbRKNSt7__cxx1112basic_stringIT_T0_T1_EEPKS5_(ptr noundef nonnull align 8 dereferenceable(32) %31, ptr noundef @.str.18)
  br i1 %32, label %36, label %33

33:                                               ; preds = %30
  %34 = load ptr, ptr %6, align 8, !tbaa !20
  %35 = call noundef zeroext i1 @_ZSteqIcSt11char_traitsIcESaIcEEbRKNSt7__cxx1112basic_stringIT_T0_T1_EEPKS5_(ptr noundef nonnull align 8 dereferenceable(32) %34, ptr noundef @.str.19)
  br i1 %35, label %36, label %38

36:                                               ; preds = %33, %30, %27, %24, %21, %18, %15, %12, %9, %3
  %37 = load ptr, ptr %5, align 8, !tbaa !110
  store i8 1, ptr %37, align 1, !tbaa !137
  br label %40

38:                                               ; preds = %33
  %39 = load ptr, ptr %5, align 8, !tbaa !110
  store i8 0, ptr %39, align 1, !tbaa !137
  br label %40

40:                                               ; preds = %38, %36
  ret void
}