; Function Attrs: mustprogress nounwind uwtable
define dso_local void @_ZN5cmsys20CommandLineArguments16PopulateVariableEPbRKNSt7__cxx1112basic_stringIcSt11char_traitsIcESaIcEEE(ptr nonnull readnone align 8 captures(none) %0, ptr noundef writeonly captures(none) initializes((0, 1)) %1, ptr noundef nonnull align 8 dereferenceable(32) %2) local_unnamed_addr #5 align 2 {
  %4 = tail call noundef i32 @_ZNKSt7__cxx1112basic_stringIcSt11char_traitsIcESaIcEE7compareEPKc(ptr noundef nonnull align 8 dereferenceable(32) %2, ptr noundef nonnull @.str.10) #29
  %5 = icmp eq i32 %4, 0
  br i1 %5, label %33, label %6

6:                                                ; preds = %3
  %7 = tail call noundef i32 @_ZNKSt7__cxx1112basic_stringIcSt11char_traitsIcESaIcEE7compareEPKc(ptr noundef nonnull align 8 dereferenceable(32) %2, ptr noundef nonnull @.str.11) #29
  %8 = icmp eq i32 %7, 0
  br i1 %8, label %33, label %9

9:                                                ; preds = %6
  %10 = tail call noundef i32 @_ZNKSt7__cxx1112basic_stringIcSt11char_traitsIcESaIcEE7compareEPKc(ptr noundef nonnull align 8 dereferenceable(32) %2, ptr noundef nonnull @.str.12) #29
  %11 = icmp eq i32 %10, 0
  br i1 %11, label %33, label %12

12:                                               ; preds = %9
  %13 = tail call noundef i32 @_ZNKSt7__cxx1112basic_stringIcSt11char_traitsIcESaIcEE7compareEPKc(ptr noundef nonnull align 8 dereferenceable(32) %2, ptr noundef nonnull @.str.13) #29
  %14 = icmp eq i32 %13, 0
  br i1 %14, label %33, label %15

15:                                               ; preds = %12
  %16 = tail call noundef i32 @_ZNKSt7__cxx1112basic_stringIcSt11char_traitsIcESaIcEE7compareEPKc(ptr noundef nonnull align 8 dereferenceable(32) %2, ptr noundef nonnull @.str.14) #29
  %17 = icmp eq i32 %16, 0
  br i1 %17, label %33, label %18

18:                                               ; preds = %15
  %19 = tail call noundef i32 @_ZNKSt7__cxx1112basic_stringIcSt11char_traitsIcESaIcEE7compareEPKc(ptr noundef nonnull align 8 dereferenceable(32) %2, ptr noundef nonnull @.str.15) #29
  %20 = icmp eq i32 %19, 0
  br i1 %20, label %33, label %21

21:                                               ; preds = %18
  %22 = tail call noundef i32 @_ZNKSt7__cxx1112basic_stringIcSt11char_traitsIcESaIcEE7compareEPKc(ptr noundef nonnull align 8 dereferenceable(32) %2, ptr noundef nonnull @.str.16) #29
  %23 = icmp eq i32 %22, 0
  br i1 %23, label %33, label %24

24:                                               ; preds = %21
  %25 = tail call noundef i32 @_ZNKSt7__cxx1112basic_stringIcSt11char_traitsIcESaIcEE7compareEPKc(ptr noundef nonnull align 8 dereferenceable(32) %2, ptr noundef nonnull @.str.17) #29
  %26 = icmp eq i32 %25, 0
  br i1 %26, label %33, label %27

27:                                               ; preds = %24
  %28 = tail call noundef i32 @_ZNKSt7__cxx1112basic_stringIcSt11char_traitsIcESaIcEE7compareEPKc(ptr noundef nonnull align 8 dereferenceable(32) %2, ptr noundef nonnull @.str.18) #29
  %29 = icmp eq i32 %28, 0
  br i1 %29, label %33, label %30

30:                                               ; preds = %27
  %31 = tail call noundef i32 @_ZNKSt7__cxx1112basic_stringIcSt11char_traitsIcESaIcEE7compareEPKc(ptr noundef nonnull align 8 dereferenceable(32) %2, ptr noundef nonnull @.str.19) #29
  %32 = icmp eq i32 %31, 0
  %spec.select = zext i1 %32 to i8
  br label %33

33:                                               ; preds = %30, %3, %6, %9, %12, %15, %18, %21, %24, %27
  %storemerge = phi i8 [ 1, %27 ], [ 1, %24 ], [ 1, %21 ], [ 1, %18 ], [ 1, %15 ], [ 1, %12 ], [ 1, %9 ], [ 1, %6 ], [ 1, %3 ], [ %spec.select, %30 ]
  store i8 %storemerge, ptr %1, align 1, !tbaa !143
  ret void
}